; Function Attrs: nounwind uwtable
define internal noundef i32 @be_mbedtls_bio_set_fd(ptr noundef readonly captures(none) %0, i32 noundef %1) #0 {
  %3 = getelementptr inbounds nuw i8, ptr %0, i64 528
  %4 = load ptr, ptr %3, align 8
  %5 = getelementptr inbounds nuw i8, ptr %0, i64 520
  %6 = load ptr, ptr %5, align 8
  %.not = icmp eq ptr %6, null
  br i1 %.not, label %7, label %10

7:                                                ; preds = %2
  %8 = getelementptr inbounds nuw i8, ptr %4, i64 8
  store i32 %1, ptr %8, align 8
  %9 = load ptr, ptr %4, align 8
  tail call void @mbedtls_ssl_set_bio(ptr noundef %9, ptr noundef nonnull %8, ptr noundef nonnull @mbedtls_net_send, ptr noundef nonnull @mbedtls_net_recv, ptr noundef null) #5
  br label %12

10:                                               ; preds = %2
  %11 = load ptr, ptr %4, align 8
  tail call void @mbedtls_ssl_set_bio(ptr noundef %11, ptr noundef nonnull %6, ptr noundef nonnull @bio_bufferevent_write, ptr noundef nonnull @bio_bufferevent_read, ptr noundef null) #5
  br label %12

12:                                               ; preds = %10, %7
  ret i32 0
}